target datalayout = "e-m:e-p270:32:32-p271:32:32-p272:64:64-i64:64-i128:128-f80:128-n8:16:32:64-S128"
target triple = "x86_64-pc-linux-gnu"

%"class.arrow::SmallBasicDecimal" = type { i32 }

; Function Attrs: mustprogress nounwind uwtable
define noundef nonnull align 4 dereferenceable(4) ptr @_ZN5arrow14BasicDecimal32rSEj(ptr noundef nonnull align 4 dereferenceable(4) %0, i32 noundef %1) #0 align 2 {
  %3 = alloca ptr, align 8
  %4 = alloca i32, align 4
  store ptr %0, ptr %3, align 8, !tbaa !41
  store i32 %1, ptr %4, align 4, !tbaa !30
  %5 = load ptr, ptr %3, align 8
  %6 = load i32, ptr %4, align 4, !tbaa !30
  %7 = icmp ne i32 %6, 0
  br i1 %7, label %8, label %19

8:                                                ; preds = %2
  %9 = load i32, ptr %4, align 4, !tbaa !30
  %10 = icmp ult i32 %9, 32
  br i1 %10, label %11, label %16

11:                                               ; preds = %8
  %12 = load i32, ptr %4, align 4, !tbaa !30
  %13 = getelementptr inbounds nuw %"class.arrow::SmallBasicDecimal", ptr %5, i32 0, i32 0
  %14 = load i32, ptr %13, align 4, !tbaa !27
  %15 = ashr i32 %14, %12
  store i32 %15, ptr %13, align 4, !tbaa !27
  br label %18

16:                                               ; preds = %8
  %17 = getelementptr inbounds nuw %"class.arrow::SmallBasicDecimal", ptr %5, i32 0, i32 0
  store i32 0, ptr %17, align 4, !tbaa !27
  br label %18

18:                                               ; preds = %16, %11
  br label %19

19:                                               ; preds = %18, %2
  ret ptr %5
}