; Function Attrs: mustprogress nofree norecurse nosync nounwind willreturn memory(argmem: readwrite) uwtable
define noundef nonnull align 4 dereferenceable(4) ptr @_ZN5arrow14BasicDecimal32rSEj(ptr noundef nonnull returned align 4 captures(ret: address, provenance) dereferenceable(4) %0, i32 noundef %1) local_unnamed_addr #5 align 2 {
  %.not = icmp eq i32 %1, 0
  br i1 %.not, label %6, label %.sink.split

.sink.split:                                      ; preds = %2
  %3 = icmp ult i32 %1, 32
  %4 = load i32, ptr %0, align 4
  %5 = ashr i32 %4, %1
  %.sink = select i1 %3, i32 %5, i32 0
  store i32 %.sink, ptr %0, align 4, !tbaa !10
  br label %6

6:                                                ; preds = %.sink.split, %2
  ret ptr %0
}